; Function Attrs: nounwind uwtable
define hidden ptr @lxb_html_tree_generic_rawtext_parsing(ptr noundef %0, ptr nocapture noundef readonly %1) local_unnamed_addr #0 {
  %3 = tail call ptr @lxb_html_tree_insert_foreign_element(ptr noundef %0, ptr noundef %1, i64 noundef 2)
  %4 = icmp eq ptr %3, null
  br i1 %4, label %14, label %5

5:                                                ; preds = %2
  %6 = load ptr, ptr %0, align 8
  %7 = getelementptr inbounds i8, ptr %1, i64 80
  %8 = load i64, ptr %7, align 8
  %9 = getelementptr inbounds i8, ptr %6, i64 120
  store i64 %8, ptr %9, align 8
  %10 = load ptr, ptr %0, align 8
  store ptr @lxb_html_tokenizer_state_rawtext_before, ptr %10, align 8
  %11 = getelementptr inbounds i8, ptr %0, i64 88
  %12 = load ptr, ptr %11, align 8
  %13 = getelementptr inbounds i8, ptr %0, i64 96
  store ptr %12, ptr %13, align 8
  store ptr @lxb_html_tree_insertion_mode_text, ptr %11, align 8
  br label %14

14:                                               ; preds = %2, %5
  ret ptr %3
}